; Function Attrs: nounwind uwtable
define dso_local range(i32 0, 2) i32 @app_load_modules(ptr noundef %0) local_unnamed_addr #0 {
  %2 = icmp eq ptr %0, null
  br i1 %2, label %3, label %app_load_config_internal.exit.thread11

3:                                                ; preds = %1
  %4 = load ptr, ptr @default_config_file, align 8, !tbaa !20
  %5 = icmp eq ptr %4, null
  br i1 %5, label %.split.i.thread, label %6

6:                                                ; preds = %3
  %7 = load i8, ptr %4, align 1, !tbaa !13
  switch i8 %7, label %.tail.thread.i [
    i8 0, label %22
    i8 45, label %.tail.i
  ]

.tail.i:                                          ; preds = %6
  %8 = getelementptr inbounds nuw i8, ptr %4, i64 1
  %9 = load i8, ptr %8, align 1
  %10 = icmp eq i8 %9, 0
  br i1 %10, label %.split.i.thread, label %.tail.thread.i

.split.i.thread:                                  ; preds = %3, %.tail.i
  %11 = load ptr, ptr @stdin, align 8, !tbaa !28
  %12 = tail call i32 @FMT_istext(i32 noundef 32769) #27
  %.not.i.i = icmp eq i32 %12, 0
  %13 = select i1 %.not.i.i, i32 0, i32 16
  %14 = tail call ptr @BIO_new_fp(ptr noundef %11, i32 noundef %13) #27
  br label %bio_open_default_.exit

.tail.thread.i:                                   ; preds = %6, %.tail.i
  %15 = tail call i32 @FMT_istext(i32 noundef 32769) #27
  %.not12.i.i = icmp eq i32 %15, 0
  %16 = select i1 %.not12.i.i, ptr @.str.221, ptr @.str.116
  %17 = tail call ptr @BIO_new_file(ptr noundef nonnull %4, ptr noundef nonnull %16) #27
  br label %bio_open_default_.exit

bio_open_default_.exit:                           ; preds = %.split.i.thread, %.tail.thread.i
  %.0.i = phi ptr [ %14, %.split.i.thread ], [ %17, %.tail.thread.i ]
  tail call void @ERR_clear_error() #27
  %18 = icmp eq ptr %.0.i, null
  br i1 %18, label %app_load_config_internal.exit.thread, label %19

19:                                               ; preds = %bio_open_default_.exit
  %20 = tail call ptr @app_load_config_bio(ptr noundef nonnull %.0.i, ptr noundef %4)
  %21 = tail call i32 @BIO_free(ptr noundef nonnull %.0.i) #27
  br label %app_load_config_internal.exit

22:                                               ; preds = %6
  %23 = tail call ptr @app_get0_libctx() #27
  %24 = tail call ptr @NCONF_new_ex(ptr noundef %23, ptr noundef null) #27
  br label %app_load_config_internal.exit

app_load_config_internal.exit:                    ; preds = %22, %19
  %.05 = phi ptr [ %20, %19 ], [ %24, %22 ]
  %25 = icmp eq ptr %.05, null
  br i1 %25, label %app_load_config_internal.exit.thread, label %app_load_config_internal.exit.thread11

app_load_config_internal.exit.thread11:           ; preds = %1, %app_load_config_internal.exit
  %.015 = phi ptr [ %.05, %app_load_config_internal.exit ], [ null, %1 ]
  %.0514 = phi ptr [ %.05, %app_load_config_internal.exit ], [ %0, %1 ]
  %26 = tail call i32 @CONF_modules_load(ptr noundef nonnull %.0514, ptr noundef null, i64 noundef 0) #27
  %27 = icmp slt i32 %26, 1
  br i1 %27, label %28, label %app_load_config_internal.exit.thread.sink.split

28:                                               ; preds = %app_load_config_internal.exit.thread11
  %29 = load ptr, ptr @bio_err, align 8, !tbaa !26
  %30 = tail call i32 (ptr, ptr, ...) @BIO_printf(ptr noundef %29, ptr noundef nonnull @.str.14) #27
  %31 = load ptr, ptr @bio_err, align 8, !tbaa !26
  tail call void @ERR_print_errors(ptr noundef %31) #27
  br label %app_load_config_internal.exit.thread.sink.split

app_load_config_internal.exit.thread.sink.split:  ; preds = %app_load_config_internal.exit.thread11, %28
  %.06.ph = phi i32 [ 0, %28 ], [ 1, %app_load_config_internal.exit.thread11 ]
  tail call void @NCONF_free(ptr noundef %.015) #27
  br label %app_load_config_internal.exit.thread

app_load_config_internal.exit.thread:             ; preds = %app_load_config_internal.exit.thread.sink.split, %bio_open_default_.exit, %app_load_config_internal.exit
  %.06 = phi i32 [ 1, %app_load_config_internal.exit ], [ 1, %bio_open_default_.exit ], [ %.06.ph, %app_load_config_internal.exit.thread.sink.split ]
  ret i32 %.06
}